target datalayout = "e-m:e-p270:32:32-p271:32:32-p272:64:64-i64:64-i128:128-f80:128-n8:16:32:64-S128"
target triple = "x86_64-pc-linux-gnu"

%struct._zval_struct = type { %union._zend_value, %union.anon, %union.anon.2 }
%union._zend_value = type { i64 }
%union.anon = type { i32 }
%union.anon.2 = type { i32 }
%struct._zend_array = type { %struct._zend_refcounted_h, %union.anon.8, i32, %union.anon.10, i32, i32, i32, i32, i64, ptr }
%struct._zend_refcounted_h = type { i32, %union.anon.6 }
%union.anon.6 = type { i32 }
%union.anon.8 = type { i32 }
%union.anon.10 = type { ptr }
%struct._php_core_globals = type { i64, i8, i8, i8, i8, i8, i8, i8, i8, ptr, ptr, i64, i64, i64, ptr, ptr, ptr, ptr, ptr, i8, ptr, ptr, ptr, ptr, i64, ptr, ptr, ptr, ptr, ptr, ptr, ptr, %struct._arg_separators, ptr, %struct._zend_array, i16, i8, i8, %struct._zend_llist, [6 x %struct._zval_struct], i8, i8, i8, i8, i8, ptr, ptr, i64, [8 x i8], i8, i8, i8, i8, i8, i8, i32, i32, ptr, ptr, ptr, ptr, i64, i64, ptr, i64, ptr, ptr, i8, i8, i8, i8, i8, i8, i64, ptr, i64, i64 }
%struct._arg_separators = type { ptr, ptr }
%struct._zend_llist = type { ptr, ptr, i64, i64, ptr, i8, ptr }

@core_globals = external global %struct._php_core_globals, align 8
@.str.13 = private unnamed_addr constant [6 x i8] c"file:\00", align 1
@.str.14 = private unnamed_addr constant [9 x i8] c":memory:\00", align 1

; Function Attrs: nounwind uwtable
define internal ptr @make_filename_safe(ptr noundef %0) #0 {
  %2 = alloca ptr, align 8
  %3 = alloca ptr, align 8
  %4 = alloca ptr, align 8
  store ptr %0, ptr %3, align 8
  %5 = load ptr, ptr %3, align 8
  %6 = icmp ne ptr %5, null
  br i1 %6, label %8, label %7

7:                                                ; preds = %1
  store ptr null, ptr %2, align 8
  br label %55

8:                                                ; preds = %1
  %9 = load ptr, ptr %3, align 8
  %10 = load i8, ptr %9, align 1
  %11 = sext i8 %10 to i32
  %12 = icmp ne i32 %11, 0
  br i1 %12, label %13, label %29

13:                                               ; preds = %8
  %14 = load ptr, ptr %3, align 8
  %15 = call i32 @strncasecmp(ptr noundef %14, ptr noundef @.str.13, i64 noundef 5) #12
  %16 = icmp eq i32 %15, 0
  br i1 %16, label %17, label %29

17:                                               ; preds = %13
  %18 = load ptr, ptr getelementptr inbounds (%struct._php_core_globals, ptr @core_globals, i32 0, i32 18), align 8
  %19 = icmp ne ptr %18, null
  br i1 %19, label %20, label %26

20:                                               ; preds = %17
  %21 = load ptr, ptr getelementptr inbounds (%struct._php_core_globals, ptr @core_globals, i32 0, i32 18), align 8
  %22 = load i8, ptr %21, align 1
  %23 = sext i8 %22 to i32
  %24 = icmp ne i32 %23, 0
  br i1 %24, label %25, label %26

25:                                               ; preds = %20
  store ptr null, ptr %2, align 8
  br label %55

26:                                               ; preds = %20, %17
  %27 = load ptr, ptr %3, align 8
  %28 = call noalias ptr @_estrdup(ptr noundef %27)
  store ptr %28, ptr %2, align 8
  br label %55

29:                                               ; preds = %13, %8
  %30 = load ptr, ptr %3, align 8
  %31 = load i8, ptr %30, align 1
  %32 = sext i8 %31 to i32
  %33 = icmp ne i32 %32, 0
  br i1 %33, label %34, label %52

34:                                               ; preds = %29
  %35 = load ptr, ptr %3, align 8
  %36 = call i32 @memcmp(ptr noundef %35, ptr noundef @.str.14, i64 noundef 9) #12
  %37 = icmp ne i32 %36, 0
  br i1 %37, label %38, label %52

38:                                               ; preds = %34
  %39 = load ptr, ptr %3, align 8
  %40 = call ptr @expand_filepath(ptr noundef %39, ptr noundef null)
  store ptr %40, ptr %4, align 8
  %41 = load ptr, ptr %4, align 8
  %42 = icmp ne ptr %41, null
  br i1 %42, label %44, label %43

43:                                               ; preds = %38
  store ptr null, ptr %2, align 8
  br label %55

44:                                               ; preds = %38
  %45 = load ptr, ptr %4, align 8
  %46 = call i32 @php_check_open_basedir(ptr noundef %45)
  %47 = icmp ne i32 %46, 0
  br i1 %47, label %48, label %50

48:                                               ; preds = %44
  %49 = load ptr, ptr %4, align 8
  call void @_efree(ptr noundef %49)
  store ptr null, ptr %2, align 8
  br label %55

50:                                               ; preds = %44
  %51 = load ptr, ptr %4, align 8
  store ptr %51, ptr %2, align 8
  br label %55

52:                                               ; preds = %34, %29
  %53 = load ptr, ptr %3, align 8
  %54 = call noalias ptr @_estrdup(ptr noundef %53)
  store ptr %54, ptr %2, align 8
  br label %55

55:                                               ; preds = %52, %50, %48, %43, %26, %25, %7
  %56 = load ptr, ptr %2, align 8
  ret ptr %56
}