; Function Attrs: nounwind uwtable
define internal fastcc ptr @make_filename_safe(ptr noundef %0) unnamed_addr #0 {
  %.not = icmp eq ptr %0, null
  br i1 %.not, label %20, label %2

2:                                                ; preds = %1
  %3 = load i8, ptr %0, align 1
  %.not16 = icmp eq i8 %3, 0
  br i1 %.not16, label %.thread, label %4

4:                                                ; preds = %2
  %5 = tail call i32 @strncasecmp(ptr noundef nonnull %0, ptr noundef nonnull @.str.13, i64 noundef 5) #14
  %6 = icmp eq i32 %5, 0
  br i1 %6, label %7, label %13

7:                                                ; preds = %4
  %8 = load ptr, ptr getelementptr inbounds (%struct._php_core_globals, ptr @core_globals, i64 0, i32 18), align 8
  %.not21 = icmp eq ptr %8, null
  br i1 %.not21, label %11, label %9

9:                                                ; preds = %7
  %10 = load i8, ptr %8, align 1
  %.not22 = icmp eq i8 %10, 0
  br i1 %.not22, label %11, label %20

11:                                               ; preds = %9, %7
  %12 = tail call noalias ptr @_estrdup(ptr noundef nonnull %0) #11
  br label %20

13:                                               ; preds = %4
  %bcmp = tail call i32 @bcmp(ptr noundef nonnull dereferenceable(9) %0, ptr noundef nonnull dereferenceable(9) @.str.14, i64 9)
  %.not18 = icmp eq i32 %bcmp, 0
  br i1 %.not18, label %.thread, label %14

14:                                               ; preds = %13
  %15 = tail call ptr @expand_filepath(ptr noundef nonnull %0, ptr noundef null) #11
  %.not19 = icmp eq ptr %15, null
  br i1 %.not19, label %20, label %16

16:                                               ; preds = %14
  %17 = tail call i32 @php_check_open_basedir(ptr noundef nonnull %15) #11
  %.not20 = icmp eq i32 %17, 0
  br i1 %.not20, label %20, label %18

18:                                               ; preds = %16
  tail call void @_efree(ptr noundef nonnull %15) #11
  br label %20

.thread:                                          ; preds = %2, %13
  %19 = tail call noalias ptr @_estrdup(ptr noundef nonnull %0) #11
  br label %20

20:                                               ; preds = %16, %14, %9, %1, %.thread, %18, %11
  %.0 = phi ptr [ %12, %11 ], [ null, %18 ], [ %19, %.thread ], [ null, %1 ], [ null, %9 ], [ null, %14 ], [ %15, %16 ]
  ret ptr %.0
}